target datalayout = "e-m:e-p270:32:32-p271:32:32-p272:64:64-i64:64-i128:128-f80:128-n8:16:32:64-S128"
target triple = "x86_64-pc-linux-gnu"

%"class.pxrInternal_v0_24__pxrReserved__::PcpExpressionVariablesDependencyData" = type { %"class.std::unique_ptr" }
%"class.std::unique_ptr" = type { %"struct.std::__uniq_ptr_data" }
%"struct.std::__uniq_ptr_data" = type { %"class.std::__uniq_ptr_impl" }
%"class.std::__uniq_ptr_impl" = type { %"class.std::tuple" }
%"class.std::tuple" = type { %"struct.std::_Tuple_impl" }
%"struct.std::_Tuple_impl" = type { %"struct.std::_Head_base.1" }
%"struct.std::_Head_base.1" = type { ptr }
%"struct.std::__detail::_Node_iterator_base" = type { ptr }
%"class.pxrInternal_v0_24__pxrReserved__::PcpExpressionVariablesDependencyData::_Data" = type { %"class.std::unordered_map" }
%"class.std::unordered_map" = type { %"class.std::_Hashtable" }
%"class.std::_Hashtable" = type { ptr, i64, %"struct.std::__detail::_Hash_node_base", i64, %"struct.std::__detail::_Prime_rehash_policy", ptr }
%"struct.std::__detail::_Hash_node_base" = type { ptr }
%"struct.std::__detail::_Prime_rehash_policy" = type { float, i64 }
%"struct.std::pair" = type { %"class.pxrInternal_v0_24__pxrReserved__::TfWeakPtr", %"class.std::unordered_set" }
%"class.pxrInternal_v0_24__pxrReserved__::TfWeakPtr" = type { ptr, %"class.pxrInternal_v0_24__pxrReserved__::TfRefPtr" }
%"class.pxrInternal_v0_24__pxrReserved__::TfRefPtr" = type { ptr }
%"class.std::unordered_set" = type { %"class.std::_Hashtable.4" }
%"class.std::_Hashtable.4" = type { ptr, i64, %"struct.std::__detail::_Hash_node_base", i64, %"struct.std::__detail::_Prime_rehash_policy", ptr }
%"struct.std::__detail::_Node_const_iterator" = type { %"struct.std::__detail::_Node_iterator_base" }
%"struct.std::__detail::_Hash_node_value_base" = type { %"struct.__gnu_cxx::__aligned_buffer" }
%"struct.__gnu_cxx::__aligned_buffer" = type { %"union.std::aligned_storage<72, 8>::type" }
%"union.std::aligned_storage<72, 8>::type" = type { [72 x i8] }

; Function Attrs: mustprogress nounwind uwtable
define linkonce_odr noundef nonnull align 8 dereferenceable(8) ptr @_ZNSt10_Head_baseILm0EPN32pxrInternal_v0_24__pxrReserved__36PcpExpressionVariablesDependencyData5_DataELb0EE7_M_headERKS4_(ptr noundef nonnull align 8 dereferenceable(8) %0) #0 comdat align 2 {
  %2 = alloca ptr, align 8
  store ptr %0, ptr %2, align 8
  %3 = load ptr, ptr %2, align 8
  %4 = getelementptr inbounds nuw %"struct.std::_Head_base.1", ptr %3, i32 0, i32 0
  ret ptr %4
}

; Function Attrs: mustprogress nounwind uwtable
define linkonce_odr noundef nonnull align 8 dereferenceable(8) ptr @_ZNSt11_Tuple_implILm0EJPN32pxrInternal_v0_24__pxrReserved__36PcpExpressionVariablesDependencyData5_DataESt14default_deleteIS2_EEE7_M_headERKS6_(ptr noundef nonnull align 8 dereferenceable(8) %0) #0 comdat align 2 {
  %2 = alloca ptr, align 8
  store ptr %0, ptr %2, align 8
  %3 = load ptr, ptr %2, align 8
  %4 = call noundef nonnull align 8 dereferenceable(8) ptr @_ZNSt10_Head_baseILm0EPN32pxrInternal_v0_24__pxrReserved__36PcpExpressionVariablesDependencyData5_DataELb0EE7_M_headERKS4_(ptr noundef nonnull align 8 dereferenceable(8) %3) #11
  ret ptr %4
}

; Function Attrs: mustprogress nounwind uwtable
define linkonce_odr noundef ptr @_ZN9__gnu_cxx16__aligned_bufferISt4pairIKN32pxrInternal_v0_24__pxrReserved__9TfWeakPtrINS2_13PcpLayerStackEEESt13unordered_setINSt7__cxx1112basic_stringIcSt11char_traitsIcESaIcEEESt4hashISD_ESt8equal_toISD_ESaISD_EEEE7_M_addrEv(ptr noundef nonnull align 8 dereferenceable(72) %0) #0 comdat align 2 {
  %2 = alloca ptr, align 8
  store ptr %0, ptr %2, align 8
  %3 = load ptr, ptr %2, align 8
  %4 = getelementptr inbounds nuw %"struct.__gnu_cxx::__aligned_buffer", ptr %3, i32 0, i32 0
  ret ptr %4
}

; Function Attrs: mustprogress nounwind uwtable
define linkonce_odr void @_ZNSt8__detail19_Node_iterator_baseISt4pairIKN32pxrInternal_v0_24__pxrReserved__9TfWeakPtrINS2_13PcpLayerStackEEESt13unordered_setINSt7__cxx1112basic_stringIcSt11char_traitsIcESaIcEEESt4hashISD_ESt8equal_toISD_ESaISD_EEELb1EEC2EPNS_10_Hash_nodeISK_Lb1EEE(ptr noundef nonnull align 8 dereferenceable(8) %0, ptr noundef %1) unnamed_addr #0 comdat align 2 {
  %3 = alloca ptr, align 8
  %4 = alloca ptr, align 8
  store ptr %0, ptr %3, align 8
  store ptr %1, ptr %4, align 8
  %5 = load ptr, ptr %3, align 8
  %6 = getelementptr inbounds nuw %"struct.std::__detail::_Node_iterator_base", ptr %5, i32 0, i32 0
  %7 = load ptr, ptr %4, align 8
  store ptr %7, ptr %6, align 8
  ret void
}

; Function Attrs: mustprogress nounwind uwtable
define linkonce_odr noundef nonnull align 8 dereferenceable(8) ptr @_ZSt12__get_helperILm0EPN32pxrInternal_v0_24__pxrReserved__36PcpExpressionVariablesDependencyData5_DataEJSt14default_deleteIS2_EEERKT0_RKSt11_Tuple_implIXT_EJS6_DpT1_EE(ptr noundef nonnull align 8 dereferenceable(8) %0) #0 comdat {
  %2 = alloca ptr, align 8
  store ptr %0, ptr %2, align 8
  %3 = load ptr, ptr %2, align 8
  %4 = call noundef nonnull align 8 dereferenceable(8) ptr @_ZNSt11_Tuple_implILm0EJPN32pxrInternal_v0_24__pxrReserved__36PcpExpressionVariablesDependencyData5_DataESt14default_deleteIS2_EEE7_M_headERKS6_(ptr noundef nonnull align 8 dereferenceable(8) %3) #11
  ret ptr %4
}

; Function Attrs: mustprogress nounwind uwtable
define linkonce_odr noundef ptr @_ZN9__gnu_cxx16__aligned_bufferISt4pairIKN32pxrInternal_v0_24__pxrReserved__9TfWeakPtrINS2_13PcpLayerStackEEESt13unordered_setINSt7__cxx1112basic_stringIcSt11char_traitsIcESaIcEEESt4hashISD_ESt8equal_toISD_ESaISD_EEEE6_M_ptrEv(ptr noundef nonnull align 8 dereferenceable(72) %0) #0 comdat align 2 {
  %2 = alloca ptr, align 8
  store ptr %0, ptr %2, align 8
  %3 = load ptr, ptr %2, align 8
  %4 = call noundef ptr @_ZN9__gnu_cxx16__aligned_bufferISt4pairIKN32pxrInternal_v0_24__pxrReserved__9TfWeakPtrINS2_13PcpLayerStackEEESt13unordered_setINSt7__cxx1112basic_stringIcSt11char_traitsIcESaIcEEESt4hashISD_ESt8equal_toISD_ESaISD_EEEE7_M_addrEv(ptr noundef nonnull align 8 dereferenceable(72) %3) #11
  ret ptr %4
}

; Function Attrs: mustprogress nounwind uwtable
define linkonce_odr void @_ZNSt8__detail20_Node_const_iteratorISt4pairIKN32pxrInternal_v0_24__pxrReserved__9TfWeakPtrINS2_13PcpLayerStackEEESt13unordered_setINSt7__cxx1112basic_stringIcSt11char_traitsIcESaIcEEESt4hashISD_ESt8equal_toISD_ESaISD_EEELb0ELb1EEC2EPNS_10_Hash_nodeISK_Lb1EEE(ptr noundef nonnull align 8 dereferenceable(8) %0, ptr noundef %1) unnamed_addr #0 comdat align 2 {
  %3 = alloca ptr, align 8
  %4 = alloca ptr, align 8
  store ptr %0, ptr %3, align 8
  store ptr %1, ptr %4, align 8
  %5 = load ptr, ptr %3, align 8
  %6 = load ptr, ptr %4, align 8
  call void @_ZNSt8__detail19_Node_iterator_baseISt4pairIKN32pxrInternal_v0_24__pxrReserved__9TfWeakPtrINS2_13PcpLayerStackEEESt13unordered_setINSt7__cxx1112basic_stringIcSt11char_traitsIcESaIcEEESt4hashISD_ESt8equal_toISD_ESaISD_EEELb1EEC2EPNS_10_Hash_nodeISK_Lb1EEE(ptr noundef nonnull align 8 dereferenceable(8) %5, ptr noundef %6) #11
  ret void
}

; Function Attrs: mustprogress nounwind uwtable
define linkonce_odr noundef nonnull align 8 dereferenceable(8) ptr @_ZSt3getILm0EJPN32pxrInternal_v0_24__pxrReserved__36PcpExpressionVariablesDependencyData5_DataESt14default_deleteIS2_EEERKNSt13tuple_elementIXT_ESt5tupleIJDpT0_EEE4typeERKSA_(ptr noundef nonnull align 8 dereferenceable(8) %0) #0 comdat {
  %2 = alloca ptr, align 8
  store ptr %0, ptr %2, align 8
  %3 = load ptr, ptr %2, align 8
  %4 = call noundef nonnull align 8 dereferenceable(8) ptr @_ZSt12__get_helperILm0EPN32pxrInternal_v0_24__pxrReserved__36PcpExpressionVariablesDependencyData5_DataEJSt14default_deleteIS2_EEERKT0_RKSt11_Tuple_implIXT_EJS6_DpT1_EE(ptr noundef nonnull align 8 dereferenceable(8) %3) #11
  ret ptr %4
}

; Function Attrs: mustprogress nounwind uwtable
define linkonce_odr noundef ptr @_ZNSt8__detail21_Hash_node_value_baseISt4pairIKN32pxrInternal_v0_24__pxrReserved__9TfWeakPtrINS2_13PcpLayerStackEEESt13unordered_setINSt7__cxx1112basic_stringIcSt11char_traitsIcESaIcEEESt4hashISD_ESt8equal_toISD_ESaISD_EEEE9_M_valptrEv(ptr noundef nonnull align 8 dereferenceable(72) %0) #0 comdat align 2 {
  %2 = alloca ptr, align 8
  store ptr %0, ptr %2, align 8
  %3 = load ptr, ptr %2, align 8
  %4 = getelementptr inbounds nuw %"struct.std::__detail::_Hash_node_value_base", ptr %3, i32 0, i32 0
  %5 = call noundef ptr @_ZN9__gnu_cxx16__aligned_bufferISt4pairIKN32pxrInternal_v0_24__pxrReserved__9TfWeakPtrINS2_13PcpLayerStackEEESt13unordered_setINSt7__cxx1112basic_stringIcSt11char_traitsIcESaIcEEESt4hashISD_ESt8equal_toISD_ESaISD_EEEE6_M_ptrEv(ptr noundef nonnull align 8 dereferenceable(72) %4) #11
  ret ptr %5
}

; Function Attrs: mustprogress nounwind uwtable
define linkonce_odr ptr @_ZNKSt10_HashtableIN32pxrInternal_v0_24__pxrReserved__9TfWeakPtrINS0_13PcpLayerStackEEESt4pairIKS3_St13unordered_setINSt7__cxx1112basic_stringIcSt11char_traitsIcESaIcEEESt4hashISC_ESt8equal_toISC_ESaISC_EEESaISJ_ENSt8__detail10_Select1stESF_IS3_ENS0_6TfHashENSL_18_Mod_range_hashingENSL_20_Default_ranged_hashENSL_20_Prime_rehash_policyENSL_17_Hashtable_traitsILb1ELb0ELb1EEEE3endEv(ptr noundef nonnull align 8 dereferenceable(56) %0) #0 comdat align 2 {
  %2 = alloca %"struct.std::__detail::_Node_const_iterator", align 8
  %3 = alloca ptr, align 8
  store ptr %0, ptr %3, align 8
  call void @_ZNSt8__detail20_Node_const_iteratorISt4pairIKN32pxrInternal_v0_24__pxrReserved__9TfWeakPtrINS2_13PcpLayerStackEEESt13unordered_setINSt7__cxx1112basic_stringIcSt11char_traitsIcESaIcEEESt4hashISD_ESt8equal_toISD_ESaISD_EEELb0ELb1EEC2EPNS_10_Hash_nodeISK_Lb1EEE(ptr noundef nonnull align 8 dereferenceable(8) %2, ptr noundef null) #11
  %4 = getelementptr inbounds nuw %"struct.std::__detail::_Node_const_iterator", ptr %2, i32 0, i32 0
  %5 = getelementptr inbounds nuw %"struct.std::__detail::_Node_iterator_base", ptr %4, i32 0, i32 0
  %6 = load ptr, ptr %5, align 8
  ret ptr %6
}

; Function Attrs: mustprogress nounwind uwtable
define linkonce_odr noundef ptr @_ZNKSt15__uniq_ptr_implIN32pxrInternal_v0_24__pxrReserved__36PcpExpressionVariablesDependencyData5_DataESt14default_deleteIS2_EE6_M_ptrEv(ptr noundef nonnull align 8 dereferenceable(8) %0) #0 comdat align 2 {
  %2 = alloca ptr, align 8
  store ptr %0, ptr %2, align 8
  %3 = load ptr, ptr %2, align 8
  %4 = getelementptr inbounds nuw %"class.std::__uniq_ptr_impl", ptr %3, i32 0, i32 0
  %5 = call noundef nonnull align 8 dereferenceable(8) ptr @_ZSt3getILm0EJPN32pxrInternal_v0_24__pxrReserved__36PcpExpressionVariablesDependencyData5_DataESt14default_deleteIS2_EEERKNSt13tuple_elementIXT_ESt5tupleIJDpT0_EEE4typeERKSA_(ptr noundef nonnull align 8 dereferenceable(8) %4) #11
  %6 = load ptr, ptr %5, align 8
  ret ptr %6
}

; Function Attrs: mustprogress nounwind uwtable
define linkonce_odr noundef ptr @_ZNKSt8__detail20_Node_const_iteratorISt4pairIKN32pxrInternal_v0_24__pxrReserved__9TfWeakPtrINS2_13PcpLayerStackEEESt13unordered_setINSt7__cxx1112basic_stringIcSt11char_traitsIcESaIcEEESt4hashISD_ESt8equal_toISD_ESaISD_EEELb0ELb1EEptEv(ptr noundef nonnull align 8 dereferenceable(8) %0) #0 comdat align 2 {
  %2 = alloca ptr, align 8
  store ptr %0, ptr %2, align 8
  %3 = load ptr, ptr %2, align 8
  %4 = getelementptr inbounds nuw %"struct.std::__detail::_Node_iterator_base", ptr %3, i32 0, i32 0
  %5 = load ptr, ptr %4, align 8
  %6 = getelementptr inbounds i8, ptr %5, i64 8
  %7 = call noundef ptr @_ZNSt8__detail21_Hash_node_value_baseISt4pairIKN32pxrInternal_v0_24__pxrReserved__9TfWeakPtrINS2_13PcpLayerStackEEESt13unordered_setINSt7__cxx1112basic_stringIcSt11char_traitsIcESaIcEEESt4hashISD_ESt8equal_toISD_ESaISD_EEEE9_M_valptrEv(ptr noundef nonnull align 8 dereferenceable(72) %6) #11
  ret ptr %7
}

; Function Attrs: mustprogress nounwind uwtable
define linkonce_odr noundef zeroext i1 @_ZNSt8__detailneERKNS_19_Node_iterator_baseISt4pairIKN32pxrInternal_v0_24__pxrReserved__9TfWeakPtrINS2_13PcpLayerStackEEESt13unordered_setINSt7__cxx1112basic_stringIcSt11char_traitsIcESaIcEEESt4hashISD_ESt8equal_toISD_ESaISD_EEELb1EEESN_(ptr noundef nonnull align 8 dereferenceable(8) %0, ptr noundef nonnull align 8 dereferenceable(8) %1) #0 comdat {
  %3 = alloca ptr, align 8
  %4 = alloca ptr, align 8
  store ptr %0, ptr %3, align 8
  store ptr %1, ptr %4, align 8
  %5 = load ptr, ptr %3, align 8
  %6 = getelementptr inbounds nuw %"struct.std::__detail::_Node_iterator_base", ptr %5, i32 0, i32 0
  %7 = load ptr, ptr %6, align 8
  %8 = load ptr, ptr %4, align 8
  %9 = getelementptr inbounds nuw %"struct.std::__detail::_Node_iterator_base", ptr %8, i32 0, i32 0
  %10 = load ptr, ptr %9, align 8
  %11 = icmp ne ptr %7, %10
  ret i1 %11
}

; Function Attrs: mustprogress nounwind uwtable
define linkonce_odr ptr @_ZNKSt13unordered_mapIN32pxrInternal_v0_24__pxrReserved__9TfWeakPtrINS0_13PcpLayerStackEEESt13unordered_setINSt7__cxx1112basic_stringIcSt11char_traitsIcESaIcEEESt4hashISA_ESt8equal_toISA_ESaISA_EENS0_6TfHashESD_IS3_ESaISt4pairIKS3_SG_EEE3endEv(ptr noundef nonnull align 8 dereferenceable(56) %0) #0 comdat align 2 {
  %2 = alloca %"struct.std::__detail::_Node_const_iterator", align 8
  %3 = alloca ptr, align 8
  store ptr %0, ptr %3, align 8
  %4 = load ptr, ptr %3, align 8
  %5 = getelementptr inbounds nuw %"class.std::unordered_map", ptr %4, i32 0, i32 0
  %6 = call ptr @_ZNKSt10_HashtableIN32pxrInternal_v0_24__pxrReserved__9TfWeakPtrINS0_13PcpLayerStackEEESt4pairIKS3_St13unordered_setINSt7__cxx1112basic_stringIcSt11char_traitsIcESaIcEEESt4hashISC_ESt8equal_toISC_ESaISC_EEESaISJ_ENSt8__detail10_Select1stESF_IS3_ENS0_6TfHashENSL_18_Mod_range_hashingENSL_20_Default_ranged_hashENSL_20_Prime_rehash_policyENSL_17_Hashtable_traitsILb1ELb0ELb1EEEE3endEv(ptr noundef nonnull align 8 dereferenceable(56) %5) #11
  %7 = getelementptr inbounds nuw %"struct.std::__detail::_Node_const_iterator", ptr %2, i32 0, i32 0
  %8 = getelementptr inbounds nuw %"struct.std::__detail::_Node_iterator_base", ptr %7, i32 0, i32 0
  store ptr %6, ptr %8, align 8
  %9 = getelementptr inbounds nuw %"struct.std::__detail::_Node_const_iterator", ptr %2, i32 0, i32 0
  %10 = getelementptr inbounds nuw %"struct.std::__detail::_Node_iterator_base", ptr %9, i32 0, i32 0
  %11 = load ptr, ptr %10, align 8
  ret ptr %11
}

; Function Attrs: mustprogress uwtable
define linkonce_odr ptr @_ZNKSt13unordered_mapIN32pxrInternal_v0_24__pxrReserved__9TfWeakPtrINS0_13PcpLayerStackEEESt13unordered_setINSt7__cxx1112basic_stringIcSt11char_traitsIcESaIcEEESt4hashISA_ESt8equal_toISA_ESaISA_EENS0_6TfHashESD_IS3_ESaISt4pairIKS3_SG_EEE4findERSK_(ptr noundef nonnull align 8 dereferenceable(56) %0, ptr noundef nonnull align 8 dereferenceable(16) %1) #1 comdat align 2 {
  %3 = alloca %"struct.std::__detail::_Node_const_iterator", align 8
  %4 = alloca ptr, align 8
  %5 = alloca ptr, align 8
  store ptr %0, ptr %4, align 8
  store ptr %1, ptr %5, align 8
  %6 = load ptr, ptr %4, align 8
  %7 = getelementptr inbounds nuw %"class.std::unordered_map", ptr %6, i32 0, i32 0
  %8 = load ptr, ptr %5, align 8
  %9 = call ptr @_ZNKSt10_HashtableIN32pxrInternal_v0_24__pxrReserved__9TfWeakPtrINS0_13PcpLayerStackEEESt4pairIKS3_St13unordered_setINSt7__cxx1112basic_stringIcSt11char_traitsIcESaIcEEESt4hashISC_ESt8equal_toISC_ESaISC_EEESaISJ_ENSt8__detail10_Select1stESF_IS3_ENS0_6TfHashENSL_18_Mod_range_hashingENSL_20_Default_ranged_hashENSL_20_Prime_rehash_policyENSL_17_Hashtable_traitsILb1ELb0ELb1EEEE4findERS5_(ptr noundef nonnull align 8 dereferenceable(56) %7, ptr noundef nonnull align 8 dereferenceable(16) %8)
  %10 = getelementptr inbounds nuw %"struct.std::__detail::_Node_const_iterator", ptr %3, i32 0, i32 0
  %11 = getelementptr inbounds nuw %"struct.std::__detail::_Node_iterator_base", ptr %10, i32 0, i32 0
  store ptr %9, ptr %11, align 8
  %12 = getelementptr inbounds nuw %"struct.std::__detail::_Node_const_iterator", ptr %3, i32 0, i32 0
  %13 = getelementptr inbounds nuw %"struct.std::__detail::_Node_iterator_base", ptr %12, i32 0, i32 0
  %14 = load ptr, ptr %13, align 8
  ret ptr %14
}

; Function Attrs: mustprogress nounwind uwtable
define linkonce_odr noundef ptr @_ZNKSt10unique_ptrIN32pxrInternal_v0_24__pxrReserved__36PcpExpressionVariablesDependencyData5_DataESt14default_deleteIS2_EE3getEv(ptr noundef nonnull align 8 dereferenceable(8) %0) #0 comdat align 2 {
  %2 = alloca ptr, align 8
  store ptr %0, ptr %2, align 8
  %3 = load ptr, ptr %2, align 8
  %4 = getelementptr inbounds nuw %"class.std::unique_ptr", ptr %3, i32 0, i32 0
  %5 = call noundef ptr @_ZNKSt15__uniq_ptr_implIN32pxrInternal_v0_24__pxrReserved__36PcpExpressionVariablesDependencyData5_DataESt14default_deleteIS2_EE6_M_ptrEv(ptr noundef nonnull align 8 dereferenceable(8) %4) #11
  ret ptr %5
}

; Function Attrs: mustprogress uwtable
define linkonce_odr noundef ptr @_ZN32pxrInternal_v0_24__pxrReserved__14TfMapLookupPtrISt13unordered_mapINS_9TfWeakPtrINS_13PcpLayerStackEEESt13unordered_setINSt7__cxx1112basic_stringIcSt11char_traitsIcESaIcEEESt4hashISB_ESt8equal_toISB_ESaISB_EENS_6TfHashESE_IS4_ESaISt4pairIKS4_SH_EEES4_EEPKNT_11mapped_typeERKSP_RKT0_(ptr noundef nonnull align 8 dereferenceable(56) %0, ptr noundef nonnull align 8 dereferenceable(16) %1) #1 comdat {
  %3 = alloca ptr, align 8
  %4 = alloca ptr, align 8
  %5 = alloca %"struct.std::__detail::_Node_const_iterator", align 8
  %6 = alloca %"struct.std::__detail::_Node_const_iterator", align 8
  store ptr %0, ptr %3, align 8
  store ptr %1, ptr %4, align 8
  %7 = load ptr, ptr %3, align 8
  %8 = load ptr, ptr %4, align 8
  %9 = call ptr @_ZNKSt13unordered_mapIN32pxrInternal_v0_24__pxrReserved__9TfWeakPtrINS0_13PcpLayerStackEEESt13unordered_setINSt7__cxx1112basic_stringIcSt11char_traitsIcESaIcEEESt4hashISA_ESt8equal_toISA_ESaISA_EENS0_6TfHashESD_IS3_ESaISt4pairIKS3_SG_EEE4findERSK_(ptr noundef nonnull align 8 dereferenceable(56) %7, ptr noundef nonnull align 8 dereferenceable(16) %8)
  %10 = getelementptr inbounds nuw %"struct.std::__detail::_Node_const_iterator", ptr %5, i32 0, i32 0
  %11 = getelementptr inbounds nuw %"struct.std::__detail::_Node_iterator_base", ptr %10, i32 0, i32 0
  store ptr %9, ptr %11, align 8
  %12 = load ptr, ptr %3, align 8
  %13 = call ptr @_ZNKSt13unordered_mapIN32pxrInternal_v0_24__pxrReserved__9TfWeakPtrINS0_13PcpLayerStackEEESt13unordered_setINSt7__cxx1112basic_stringIcSt11char_traitsIcESaIcEEESt4hashISA_ESt8equal_toISA_ESaISA_EENS0_6TfHashESD_IS3_ESaISt4pairIKS3_SG_EEE3endEv(ptr noundef nonnull align 8 dereferenceable(56) %12) #11
  %14 = getelementptr inbounds nuw %"struct.std::__detail::_Node_const_iterator", ptr %6, i32 0, i32 0
  %15 = getelementptr inbounds nuw %"struct.std::__detail::_Node_iterator_base", ptr %14, i32 0, i32 0
  store ptr %13, ptr %15, align 8
  %16 = call noundef zeroext i1 @_ZNSt8__detailneERKNS_19_Node_iterator_baseISt4pairIKN32pxrInternal_v0_24__pxrReserved__9TfWeakPtrINS2_13PcpLayerStackEEESt13unordered_setINSt7__cxx1112basic_stringIcSt11char_traitsIcESaIcEEESt4hashISD_ESt8equal_toISD_ESaISD_EEELb1EEESN_(ptr noundef nonnull align 8 dereferenceable(8) %5, ptr noundef nonnull align 8 dereferenceable(8) %6) #11
  br i1 %16, label %17, label %20

17:                                               ; preds = %2
  %18 = call noundef ptr @_ZNKSt8__detail20_Node_const_iteratorISt4pairIKN32pxrInternal_v0_24__pxrReserved__9TfWeakPtrINS2_13PcpLayerStackEEESt13unordered_setINSt7__cxx1112basic_stringIcSt11char_traitsIcESaIcEEESt4hashISD_ESt8equal_toISD_ESaISD_EEELb0ELb1EEptEv(ptr noundef nonnull align 8 dereferenceable(8) %5) #11
  %19 = getelementptr inbounds nuw %"struct.std::pair", ptr %18, i32 0, i32 1
  br label %21

20:                                               ; preds = %2
  br label %21

21:                                               ; preds = %20, %17
  %22 = phi ptr [ %19, %17 ], [ null, %20 ]
  ret ptr %22
}

; Function Attrs: mustprogress nounwind uwtable
define noundef ptr @_ZNK32pxrInternal_v0_24__pxrReserved__36PcpExpressionVariablesDependencyData8_GetDataEv(ptr noundef nonnull align 8 dereferenceable(8) %0) #0 align 2 {
  %2 = alloca ptr, align 8
  store ptr %0, ptr %2, align 8
  %3 = load ptr, ptr %2, align 8
  %4 = getelementptr inbounds nuw %"class.pxrInternal_v0_24__pxrReserved__::PcpExpressionVariablesDependencyData", ptr %3, i32 0, i32 0
  %5 = call noundef ptr @_ZNKSt10unique_ptrIN32pxrInternal_v0_24__pxrReserved__36PcpExpressionVariablesDependencyData5_DataESt14default_deleteIS2_EE3getEv(ptr noundef nonnull align 8 dereferenceable(8) %4) #11
  ret ptr %5
}

; Function Attrs: mustprogress uwtable
define noundef ptr @_ZNK32pxrInternal_v0_24__pxrReserved__36PcpExpressionVariablesDependencyData28GetDependenciesForLayerStackB5cxx11ERKNS_9TfWeakPtrINS_13PcpLayerStackEEE(ptr noundef nonnull align 8 dereferenceable(8) %0, ptr noundef nonnull align 8 dereferenceable(16) %1) #1 align 2 {
  %3 = alloca ptr, align 8
  %4 = alloca ptr, align 8
  %5 = alloca ptr, align 8
  store ptr %0, ptr %3, align 8
  store ptr %1, ptr %4, align 8
  %6 = load ptr, ptr %3, align 8
  %7 = call noundef ptr @_ZNK32pxrInternal_v0_24__pxrReserved__36PcpExpressionVariablesDependencyData8_GetDataEv(ptr noundef nonnull align 8 dereferenceable(8) %6)
  store ptr %7, ptr %5, align 8
  %8 = load ptr, ptr %5, align 8
  %9 = icmp ne ptr %8, null
  br i1 %9, label %10, label %15

10:                                               ; preds = %2
  %11 = load ptr, ptr %5, align 8
  %12 = getelementptr inbounds nuw %"class.pxrInternal_v0_24__pxrReserved__::PcpExpressionVariablesDependencyData::_Data", ptr %11, i32 0, i32 0
  %13 = load ptr, ptr %4, align 8
  %14 = call noundef ptr @_ZN32pxrInternal_v0_24__pxrReserved__14TfMapLookupPtrISt13unordered_mapINS_9TfWeakPtrINS_13PcpLayerStackEEESt13unordered_setINSt7__cxx1112basic_stringIcSt11char_traitsIcESaIcEEESt4hashISB_ESt8equal_toISB_ESaISB_EENS_6TfHashESE_IS4_ESaISt4pairIKS4_SH_EEES4_EEPKNT_11mapped_typeERKSP_RKT0_(ptr noundef nonnull align 8 dereferenceable(56) %12, ptr noundef nonnull align 8 dereferenceable(16) %13)
  br label %16

15:                                               ; preds = %2
  br label %16

16:                                               ; preds = %15, %10
  %17 = phi ptr [ %14, %10 ], [ null, %15 ]
  ret ptr %17
}