; Function Attrs: mustprogress uwtable
define noundef ptr @_ZNK32pxrInternal_v0_24__pxrReserved__36PcpExpressionVariablesDependencyData28GetDependenciesForLayerStackB5cxx11ERKNS_9TfWeakPtrINS_13PcpLayerStackEEE(ptr nocapture noundef nonnull readonly align 8 dereferenceable(8) %0, ptr noundef nonnull align 8 dereferenceable(16) %1) local_unnamed_addr #4 align 2 {
  %3 = load ptr, ptr %0, align 8
  %.not = icmp eq ptr %3, null
  br i1 %.not, label %8, label %4

4:                                                ; preds = %2
  %5 = tail call ptr @_ZNKSt10_HashtableIN32pxrInternal_v0_24__pxrReserved__9TfWeakPtrINS0_13PcpLayerStackEEESt4pairIKS3_St13unordered_setINSt7__cxx1112basic_stringIcSt11char_traitsIcESaIcEEESt4hashISC_ESt8equal_toISC_ESaISC_EEESaISJ_ENSt8__detail10_Select1stESF_IS3_ENS0_6TfHashENSL_18_Mod_range_hashingENSL_20_Default_ranged_hashENSL_20_Prime_rehash_policyENSL_17_Hashtable_traitsILb1ELb0ELb1EEEE4findERS5_(ptr noundef nonnull align 8 dereferenceable(56) %3, ptr noundef nonnull align 8 dereferenceable(16) %1)
  %.not.i = icmp eq ptr %5, null
  %6 = getelementptr inbounds i8, ptr %5, i64 24
  %7 = select i1 %.not.i, ptr null, ptr %6
  br label %8

8:                                                ; preds = %2, %4
  %9 = phi ptr [ %7, %4 ], [ null, %2 ]
  ret ptr %9
}